target datalayout = "e-m:e-p270:32:32-p271:32:32-p272:64:64-i64:64-i128:128-f80:128-n8:16:32:64-S128"
target triple = "x86_64-pc-linux-gnu"

%struct.CopyToStateData = type { i32, ptr, ptr, i32, i8, i8, ptr, ptr, ptr, ptr, i8, ptr, %struct.CopyFormatOptions, ptr, ptr, ptr, ptr, i64 }
%struct.CopyFormatOptions = type { i32, i8, i8, i8, i32, ptr, i32, ptr, ptr, i32, ptr, ptr, ptr, ptr, i8, ptr, ptr, i8, ptr, ptr, i8, ptr, i8, i32, i32, i64, ptr }
%struct.StringInfoData = type { ptr, i32, i32, i32 }
%struct.PQcommMethods = type { ptr, ptr, ptr, ptr, ptr, ptr }

@.str.2 = private unnamed_addr constant [9 x i8] c"copyto.c\00", align 1
@.str.31 = private unnamed_addr constant [36 x i8] c"could not write to COPY program: %m\00", align 1
@__func__.CopySendEndOfRow = private unnamed_addr constant [17 x i8] c"CopySendEndOfRow\00", align 1
@.str.32 = private unnamed_addr constant [33 x i8] c"could not write to COPY file: %m\00", align 1
@PqCommMethods = external global ptr, align 8

; Function Attrs: nounwind uwtable
define internal void @CopySendChar(ptr noundef %0, i8 noundef signext %1) #0 {
  %3 = alloca ptr, align 8
  %4 = alloca i8, align 1
  store ptr %0, ptr %3, align 8
  store i8 %1, ptr %4, align 1
  %5 = load ptr, ptr %3, align 8
  %6 = getelementptr inbounds nuw %struct.CopyToStateData, ptr %5, i32 0, i32 2
  %7 = load ptr, ptr %6, align 8
  %8 = getelementptr inbounds nuw %struct.StringInfoData, ptr %7, i32 0, i32 1
  %9 = load i32, ptr %8, align 8
  %10 = add i32 %9, 1
  %11 = load ptr, ptr %3, align 8
  %12 = getelementptr inbounds nuw %struct.CopyToStateData, ptr %11, i32 0, i32 2
  %13 = load ptr, ptr %12, align 8
  %14 = getelementptr inbounds nuw %struct.StringInfoData, ptr %13, i32 0, i32 2
  %15 = load i32, ptr %14, align 4
  %16 = icmp sge i32 %10, %15
  br i1 %16, label %17, label %22

17:                                               ; preds = %2
  %18 = load ptr, ptr %3, align 8
  %19 = getelementptr inbounds nuw %struct.CopyToStateData, ptr %18, i32 0, i32 2
  %20 = load ptr, ptr %19, align 8
  %21 = load i8, ptr %4, align 1
  call void @appendStringInfoChar(ptr noundef %20, i8 noundef signext %21)
  br label %49

22:                                               ; preds = %2
  %23 = load i8, ptr %4, align 1
  %24 = load ptr, ptr %3, align 8
  %25 = getelementptr inbounds nuw %struct.CopyToStateData, ptr %24, i32 0, i32 2
  %26 = load ptr, ptr %25, align 8
  %27 = getelementptr inbounds nuw %struct.StringInfoData, ptr %26, i32 0, i32 0
  %28 = load ptr, ptr %27, align 8
  %29 = load ptr, ptr %3, align 8
  %30 = getelementptr inbounds nuw %struct.CopyToStateData, ptr %29, i32 0, i32 2
  %31 = load ptr, ptr %30, align 8
  %32 = getelementptr inbounds nuw %struct.StringInfoData, ptr %31, i32 0, i32 1
  %33 = load i32, ptr %32, align 8
  %34 = sext i32 %33 to i64
  %35 = getelementptr inbounds i8, ptr %28, i64 %34
  store i8 %23, ptr %35, align 1
  %36 = load ptr, ptr %3, align 8
  %37 = getelementptr inbounds nuw %struct.CopyToStateData, ptr %36, i32 0, i32 2
  %38 = load ptr, ptr %37, align 8
  %39 = getelementptr inbounds nuw %struct.StringInfoData, ptr %38, i32 0, i32 0
  %40 = load ptr, ptr %39, align 8
  %41 = load ptr, ptr %3, align 8
  %42 = getelementptr inbounds nuw %struct.CopyToStateData, ptr %41, i32 0, i32 2
  %43 = load ptr, ptr %42, align 8
  %44 = getelementptr inbounds nuw %struct.StringInfoData, ptr %43, i32 0, i32 1
  %45 = load i32, ptr %44, align 8
  %46 = add i32 %45, 1
  store i32 %46, ptr %44, align 8
  %47 = sext i32 %46 to i64
  %48 = getelementptr inbounds i8, ptr %40, i64 %47
  store i8 0, ptr %48, align 1
  br label %49

49:                                               ; preds = %22, %17
  ret void
}

; Function Attrs: nounwind uwtable
define internal void @CopySendEndOfRow(ptr noundef %0) #0 {
  %2 = alloca ptr, align 8
  %3 = alloca ptr, align 8
  store ptr %0, ptr %2, align 8
  call void @llvm.lifetime.start.p0(i64 8, ptr %3) #14
  %4 = load ptr, ptr %2, align 8
  %5 = getelementptr inbounds nuw %struct.CopyToStateData, ptr %4, i32 0, i32 2
  %6 = load ptr, ptr %5, align 8
  store ptr %6, ptr %3, align 8
  %7 = load ptr, ptr %2, align 8
  %8 = getelementptr inbounds nuw %struct.CopyToStateData, ptr %7, i32 0, i32 0
  %9 = load i32, ptr %8, align 8
  switch i32 %9, label %105 [
    i32 0, label %10
    i32 1, label %75
    i32 2, label %95
  ]

10:                                               ; preds = %1
  %11 = load ptr, ptr %2, align 8
  %12 = getelementptr inbounds nuw %struct.CopyToStateData, ptr %11, i32 0, i32 12
  %13 = getelementptr inbounds nuw %struct.CopyFormatOptions, ptr %12, i32 0, i32 1
  %14 = load i8, ptr %13, align 4, !range !6, !noundef !7
  %15 = trunc i8 %14 to i1
  br i1 %15, label %18, label %16

16:                                               ; preds = %10
  %17 = load ptr, ptr %2, align 8
  call void @CopySendChar(ptr noundef %17, i8 noundef signext 10)
  br label %18

18:                                               ; preds = %16, %10
  %19 = load ptr, ptr %3, align 8
  %20 = getelementptr inbounds nuw %struct.StringInfoData, ptr %19, i32 0, i32 0
  %21 = load ptr, ptr %20, align 8
  %22 = load ptr, ptr %3, align 8
  %23 = getelementptr inbounds nuw %struct.StringInfoData, ptr %22, i32 0, i32 1
  %24 = load i32, ptr %23, align 8
  %25 = sext i32 %24 to i64
  %26 = load ptr, ptr %2, align 8
  %27 = getelementptr inbounds nuw %struct.CopyToStateData, ptr %26, i32 0, i32 1
  %28 = load ptr, ptr %27, align 8
  %29 = call i64 @fwrite(ptr noundef %21, i64 noundef %25, i64 noundef 1, ptr noundef %28)
  %30 = icmp ne i64 %29, 1
  br i1 %30, label %37, label %31

31:                                               ; preds = %18
  %32 = load ptr, ptr %2, align 8
  %33 = getelementptr inbounds nuw %struct.CopyToStateData, ptr %32, i32 0, i32 1
  %34 = load ptr, ptr %33, align 8
  %35 = call i32 @ferror(ptr noundef %34) #14
  %36 = icmp ne i32 %35, 0
  br i1 %36, label %37, label %74

37:                                               ; preds = %31, %18
  %38 = load ptr, ptr %2, align 8
  %39 = getelementptr inbounds nuw %struct.CopyToStateData, ptr %38, i32 0, i32 10
  %40 = load i8, ptr %39, align 8, !range !6, !noundef !7
  %41 = trunc i8 %40 to i1
  br i1 %41, label %42, label %61

42:                                               ; preds = %37
  %43 = call ptr @__errno_location() #18
  %44 = load i32, ptr %43, align 4
  %45 = icmp eq i32 %44, 32
  br i1 %45, label %46, label %49

46:                                               ; preds = %42
  %47 = load ptr, ptr %2, align 8
  call void @ClosePipeToProgram(ptr noundef %47)
  %48 = call ptr @__errno_location() #18
  store i32 32, ptr %48, align 4
  br label %49

49:                                               ; preds = %46, %42
  br label %50

50:                                               ; preds = %49
  br i1 true, label %51, label %53

51:                                               ; preds = %50
  %52 = call zeroext i1 @errstart_cold(i32 noundef 21, ptr noundef null) #15
  br i1 %52, label %55, label %58

53:                                               ; preds = %50
  %54 = call zeroext i1 @errstart(i32 noundef 21, ptr noundef null)
  br i1 %54, label %55, label %58

55:                                               ; preds = %53, %51
  %56 = call i32 @errcode_for_file_access()
  %57 = call i32 (ptr, ...) @errmsg(ptr noundef @.str.31)
  call void @errfinish(ptr noundef @.str.2, i32 noundef 229, ptr noundef @__func__.CopySendEndOfRow)
  br label %58

58:                                               ; preds = %55, %53, %51
  unreachable

59:                                               ; No predecessors!
  br label %60

60:                                               ; preds = %59
  br label %73

61:                                               ; preds = %37
  br label %62

62:                                               ; preds = %61
  br i1 true, label %63, label %65

63:                                               ; preds = %62
  %64 = call zeroext i1 @errstart_cold(i32 noundef 21, ptr noundef null) #15
  br i1 %64, label %67, label %70

65:                                               ; preds = %62
  %66 = call zeroext i1 @errstart(i32 noundef 21, ptr noundef null)
  br i1 %66, label %67, label %70

67:                                               ; preds = %65, %63
  %68 = call i32 @errcode_for_file_access()
  %69 = call i32 (ptr, ...) @errmsg(ptr noundef @.str.32)
  call void @errfinish(ptr noundef @.str.2, i32 noundef 234, ptr noundef @__func__.CopySendEndOfRow)
  br label %70

70:                                               ; preds = %67, %65, %63
  unreachable

71:                                               ; No predecessors!
  br label %72

72:                                               ; preds = %71
  br label %73

73:                                               ; preds = %72, %60
  br label %74

74:                                               ; preds = %73, %31
  br label %105

75:                                               ; preds = %1
  %76 = load ptr, ptr %2, align 8
  %77 = getelementptr inbounds nuw %struct.CopyToStateData, ptr %76, i32 0, i32 12
  %78 = getelementptr inbounds nuw %struct.CopyFormatOptions, ptr %77, i32 0, i32 1
  %79 = load i8, ptr %78, align 4, !range !6, !noundef !7
  %80 = trunc i8 %79 to i1
  br i1 %80, label %83, label %81

81:                                               ; preds = %75
  %82 = load ptr, ptr %2, align 8
  call void @CopySendChar(ptr noundef %82, i8 noundef signext 10)
  br label %83

83:                                               ; preds = %81, %75
  %84 = load ptr, ptr @PqCommMethods, align 8
  %85 = getelementptr inbounds nuw %struct.PQcommMethods, ptr %84, i32 0, i32 4
  %86 = load ptr, ptr %85, align 8
  %87 = load ptr, ptr %3, align 8
  %88 = getelementptr inbounds nuw %struct.StringInfoData, ptr %87, i32 0, i32 0
  %89 = load ptr, ptr %88, align 8
  %90 = load ptr, ptr %3, align 8
  %91 = getelementptr inbounds nuw %struct.StringInfoData, ptr %90, i32 0, i32 1
  %92 = load i32, ptr %91, align 8
  %93 = sext i32 %92 to i64
  %94 = call i32 %86(i8 noundef signext 100, ptr noundef %89, i64 noundef %93)
  br label %105

95:                                               ; preds = %1
  %96 = load ptr, ptr %2, align 8
  %97 = getelementptr inbounds nuw %struct.CopyToStateData, ptr %96, i32 0, i32 11
  %98 = load ptr, ptr %97, align 8
  %99 = load ptr, ptr %3, align 8
  %100 = getelementptr inbounds nuw %struct.StringInfoData, ptr %99, i32 0, i32 0
  %101 = load ptr, ptr %100, align 8
  %102 = load ptr, ptr %3, align 8
  %103 = getelementptr inbounds nuw %struct.StringInfoData, ptr %102, i32 0, i32 1
  %104 = load i32, ptr %103, align 8
  call void %98(ptr noundef %101, i32 noundef %104)
  br label %105

105:                                              ; preds = %1, %95, %83, %74
  %106 = load ptr, ptr %3, align 8
  %107 = getelementptr inbounds nuw %struct.StringInfoData, ptr %106, i32 0, i32 1
  %108 = load i32, ptr %107, align 8
  %109 = sext i32 %108 to i64
  %110 = load ptr, ptr %2, align 8
  %111 = getelementptr inbounds nuw %struct.CopyToStateData, ptr %110, i32 0, i32 17
  %112 = load i64, ptr %111, align 8
  %113 = add i64 %112, %109
  store i64 %113, ptr %111, align 8
  %114 = load ptr, ptr %2, align 8
  %115 = getelementptr inbounds nuw %struct.CopyToStateData, ptr %114, i32 0, i32 17
  %116 = load i64, ptr %115, align 8
  call void @pgstat_progress_update_param(i32 noundef 0, i64 noundef %116)
  %117 = load ptr, ptr %3, align 8
  call void @resetStringInfo(ptr noundef %117)
  call void @llvm.lifetime.end.p0(i64 8, ptr %3) #14
  ret void
}