; Function Attrs: nounwind uwtable
define internal fastcc void @CopySendEndOfRow(ptr noundef captures(none) %0) unnamed_addr #0 {
  %2 = getelementptr inbounds nuw i8, ptr %0, i64 16
  %3 = load ptr, ptr %2, align 8
  %4 = load i32, ptr %0, align 8
  switch i32 %4, label %90 [
    i32 0, label %5
    i32 1, label %54
    i32 2, label %84
  ]

5:                                                ; preds = %1
  %6 = getelementptr inbounds nuw i8, ptr %0, i64 84
  %7 = load i8, ptr %6, align 4, !range !6, !noundef !7
  %8 = trunc nuw i8 %7 to i1
  br i1 %8, label %CopySendChar.exit, label %9

9:                                                ; preds = %5
  %10 = getelementptr inbounds nuw i8, ptr %3, i64 8
  %11 = load i32, ptr %10, align 8
  %12 = add i32 %11, 1
  %13 = getelementptr inbounds nuw i8, ptr %3, i64 12
  %14 = load i32, ptr %13, align 4
  %.not.i = icmp slt i32 %12, %14
  br i1 %.not.i, label %16, label %15

15:                                               ; preds = %9
  tail call void @appendStringInfoChar(ptr noundef nonnull %3, i8 noundef signext 10) #17
  br label %CopySendChar.exit

16:                                               ; preds = %9
  %17 = load ptr, ptr %3, align 8
  %18 = sext i32 %11 to i64
  %19 = getelementptr inbounds i8, ptr %17, i64 %18
  store i8 10, ptr %19, align 1
  %20 = load ptr, ptr %2, align 8
  %21 = load ptr, ptr %20, align 8
  %22 = getelementptr inbounds nuw i8, ptr %20, i64 8
  %23 = load i32, ptr %22, align 8
  %24 = add i32 %23, 1
  store i32 %24, ptr %22, align 8
  %25 = sext i32 %24 to i64
  %26 = getelementptr inbounds i8, ptr %21, i64 %25
  store i8 0, ptr %26, align 1
  br label %CopySendChar.exit

CopySendChar.exit:                                ; preds = %16, %15, %5
  %27 = load ptr, ptr %3, align 8
  %28 = getelementptr inbounds nuw i8, ptr %3, i64 8
  %29 = load i32, ptr %28, align 8
  %30 = sext i32 %29 to i64
  %31 = getelementptr inbounds nuw i8, ptr %0, i64 8
  %32 = load ptr, ptr %31, align 8
  %33 = tail call i64 @fwrite(ptr noundef %27, i64 noundef %30, i64 noundef 1, ptr noundef %32)
  %.not = icmp eq i64 %33, 1
  br i1 %.not, label %34, label %37

34:                                               ; preds = %CopySendChar.exit
  %35 = load ptr, ptr %31, align 8
  %36 = tail call i32 @ferror(ptr noundef %35) #17
  %.not21 = icmp eq i32 %36, 0
  br i1 %.not21, label %90, label %37

37:                                               ; preds = %34, %CopySendChar.exit
  %38 = getelementptr inbounds nuw i8, ptr %0, i64 64
  %39 = load i8, ptr %38, align 8, !range !6, !noundef !7
  %40 = trunc nuw i8 %39 to i1
  br i1 %40, label %41, label %50

41:                                               ; preds = %37
  %42 = tail call ptr @__errno_location() #21
  %43 = load i32, ptr %42, align 4
  %44 = icmp eq i32 %43, 32
  br i1 %44, label %45, label %46

45:                                               ; preds = %41
  tail call fastcc void @ClosePipeToProgram(ptr noundef nonnull %0)
  store i32 32, ptr %42, align 4
  br label %46

46:                                               ; preds = %45, %41
  %47 = tail call zeroext i1 @errstart_cold(i32 noundef 21, ptr noundef null) #18
  tail call void @llvm.assume(i1 %47)
  %48 = tail call i32 @errcode_for_file_access() #17
  %49 = tail call i32 (ptr, ...) @errmsg(ptr noundef nonnull @.str.31) #17
  tail call void @errfinish(ptr noundef nonnull @.str.2, i32 noundef 229, ptr noundef nonnull @__func__.CopySendEndOfRow) #17
  unreachable

50:                                               ; preds = %37
  %51 = tail call zeroext i1 @errstart_cold(i32 noundef 21, ptr noundef null) #18
  tail call void @llvm.assume(i1 %51)
  %52 = tail call i32 @errcode_for_file_access() #17
  %53 = tail call i32 (ptr, ...) @errmsg(ptr noundef nonnull @.str.32) #17
  tail call void @errfinish(ptr noundef nonnull @.str.2, i32 noundef 234, ptr noundef nonnull @__func__.CopySendEndOfRow) #17
  unreachable

54:                                               ; preds = %1
  %55 = getelementptr inbounds nuw i8, ptr %0, i64 84
  %56 = load i8, ptr %55, align 4, !range !6, !noundef !7
  %57 = trunc nuw i8 %56 to i1
  br i1 %57, label %CopySendChar.exit23, label %58

58:                                               ; preds = %54
  %59 = getelementptr inbounds nuw i8, ptr %3, i64 8
  %60 = load i32, ptr %59, align 8
  %61 = add i32 %60, 1
  %62 = getelementptr inbounds nuw i8, ptr %3, i64 12
  %63 = load i32, ptr %62, align 4
  %.not.i22 = icmp slt i32 %61, %63
  br i1 %.not.i22, label %65, label %64

64:                                               ; preds = %58
  tail call void @appendStringInfoChar(ptr noundef nonnull %3, i8 noundef signext 10) #17
  br label %CopySendChar.exit23

65:                                               ; preds = %58
  %66 = load ptr, ptr %3, align 8
  %67 = sext i32 %60 to i64
  %68 = getelementptr inbounds i8, ptr %66, i64 %67
  store i8 10, ptr %68, align 1
  %69 = load ptr, ptr %2, align 8
  %70 = load ptr, ptr %69, align 8
  %71 = getelementptr inbounds nuw i8, ptr %69, i64 8
  %72 = load i32, ptr %71, align 8
  %73 = add i32 %72, 1
  store i32 %73, ptr %71, align 8
  %74 = sext i32 %73 to i64
  %75 = getelementptr inbounds i8, ptr %70, i64 %74
  store i8 0, ptr %75, align 1
  br label %CopySendChar.exit23

CopySendChar.exit23:                              ; preds = %65, %64, %54
  %76 = load ptr, ptr @PqCommMethods, align 8
  %77 = getelementptr inbounds nuw i8, ptr %76, i64 32
  %78 = load ptr, ptr %77, align 8
  %79 = load ptr, ptr %3, align 8
  %80 = getelementptr inbounds nuw i8, ptr %3, i64 8
  %81 = load i32, ptr %80, align 8
  %82 = sext i32 %81 to i64
  %83 = tail call i32 %78(i8 noundef signext 100, ptr noundef %79, i64 noundef %82) #17
  br label %90

84:                                               ; preds = %1
  %85 = getelementptr inbounds nuw i8, ptr %0, i64 72
  %86 = load ptr, ptr %85, align 8
  %87 = load ptr, ptr %3, align 8
  %88 = getelementptr inbounds nuw i8, ptr %3, i64 8
  %89 = load i32, ptr %88, align 8
  tail call void %86(ptr noundef %87, i32 noundef %89) #17
  br label %90

90:                                               ; preds = %34, %84, %CopySendChar.exit23, %1
  %91 = getelementptr inbounds nuw i8, ptr %3, i64 8
  %92 = load i32, ptr %91, align 8
  %93 = sext i32 %92 to i64
  %94 = getelementptr inbounds nuw i8, ptr %0, i64 296
  %95 = load i64, ptr %94, align 8
  %96 = add i64 %95, %93
  store i64 %96, ptr %94, align 8
  tail call void @pgstat_progress_update_param(i32 noundef 0, i64 noundef %96) #17
  tail call void @resetStringInfo(ptr noundef %3) #17
  ret void
}